; Function Attrs: mustprogress uwtable
define hidden void @_ZN10duckdb_re29PrefilterC2ENS0_2OpE(ptr noundef nonnull align 8 dereferenceable(52) %0, i32 noundef %1) unnamed_addr #0 align 2 personality ptr @__gxx_personality_v0 {
  %3 = getelementptr inbounds nuw i8, ptr %0, i64 16
  %4 = getelementptr inbounds nuw i8, ptr %0, i64 32
  store ptr %4, ptr %3, align 8, !tbaa !3
  %5 = getelementptr inbounds nuw i8, ptr %0, i64 24
  store i64 0, ptr %5, align 8, !tbaa !9
  store i8 0, ptr %4, align 8, !tbaa !12
  store i32 %1, ptr %0, align 8, !tbaa !13
  %6 = getelementptr inbounds nuw i8, ptr %0, i64 8
  store ptr null, ptr %6, align 8, !tbaa !18
  %.off = add i32 %1, -3
  %switch = icmp ult i32 %.off, 2
  br i1 %switch, label %7, label %9

7:                                                ; preds = %2
  %8 = tail call noalias noundef nonnull dereferenceable(24) ptr @_Znwm(i64 noundef 24) #20
  tail call void @llvm.memset.p0.i64(ptr noundef nonnull align 8 dereferenceable(24) %8, i8 0, i64 24, i1 false)
  store ptr %8, ptr %6, align 8, !tbaa !18
  br label %9

9:                                                ; preds = %2, %7
  ret void
}